target datalayout = "e-m:e-p270:32:32-p271:32:32-p272:64:64-i64:64-i128:128-f80:128-n8:16:32:64-S128"
target triple = "x86_64-pc-linux-gnu"

%struct.Qureg = type { i32, i32, i32, i64, i64, i32, i32, %struct.ComplexArray, %struct.ComplexArray, %struct.ComplexArray, ptr, ptr, ptr, ptr, ptr, ptr }
%struct.ComplexArray = type { ptr, ptr }
%struct.QASMLogger = type { ptr, i32, i32, i32 }
%struct.Complex = type { double, double }
%struct.Vector = type { double, double, double }

; Function Attrs: nounwind uwtable
define void @qasm_recordAxisRotation(ptr noundef byval(%struct.Qureg) align 8 %0, double noundef %1, ptr noundef byval(%struct.Vector) align 8 %2, i32 noundef %3) #0 {
  %5 = alloca double, align 8
  %6 = alloca i32, align 4
  %7 = alloca %struct.Complex, align 8
  %8 = alloca %struct.Complex, align 8
  %9 = alloca double, align 8
  %10 = alloca double, align 8
  %11 = alloca double, align 8
  %12 = alloca [3 x double], align 16
  store double %1, ptr %5, align 8, !tbaa !29
  store i32 %3, ptr %6, align 4, !tbaa !25
  %13 = getelementptr inbounds nuw %struct.Qureg, ptr %0, i32 0, i32 15
  %14 = load ptr, ptr %13, align 8, !tbaa !10
  %15 = getelementptr inbounds nuw %struct.QASMLogger, ptr %14, i32 0, i32 3
  %16 = load i32, ptr %15, align 8, !tbaa !17
  %17 = icmp ne i32 %16, 0
  br i1 %17, label %19, label %18

18:                                               ; preds = %4
  br label %36

19:                                               ; preds = %4
  call void @llvm.lifetime.start.p0(i64 16, ptr %7) #7
  call void @llvm.lifetime.start.p0(i64 16, ptr %8) #7
  %20 = load double, ptr %5, align 8, !tbaa !29
  call void @getComplexPairFromRotation(double noundef %20, ptr noundef byval(%struct.Vector) align 8 %2, ptr noundef %7, ptr noundef %8)
  call void @llvm.lifetime.start.p0(i64 8, ptr %9) #7
  call void @llvm.lifetime.start.p0(i64 8, ptr %10) #7
  call void @llvm.lifetime.start.p0(i64 8, ptr %11) #7
  %21 = getelementptr inbounds nuw { double, double }, ptr %7, i32 0, i32 0
  %22 = load double, ptr %21, align 8
  %23 = getelementptr inbounds nuw { double, double }, ptr %7, i32 0, i32 1
  %24 = load double, ptr %23, align 8
  %25 = getelementptr inbounds nuw { double, double }, ptr %8, i32 0, i32 0
  %26 = load double, ptr %25, align 8
  %27 = getelementptr inbounds nuw { double, double }, ptr %8, i32 0, i32 1
  %28 = load double, ptr %27, align 8
  call void @getZYZRotAnglesFromComplexPair(double %22, double %24, double %26, double %28, ptr noundef %9, ptr noundef %10, ptr noundef %11)
  call void @llvm.lifetime.start.p0(i64 24, ptr %12) #7
  %29 = load double, ptr %9, align 8, !tbaa !29
  store double %29, ptr %12, align 8, !tbaa !29
  %30 = getelementptr inbounds double, ptr %12, i64 1
  %31 = load double, ptr %10, align 8, !tbaa !29
  store double %31, ptr %30, align 8, !tbaa !29
  %32 = getelementptr inbounds double, ptr %12, i64 2
  %33 = load double, ptr %11, align 8, !tbaa !29
  store double %33, ptr %32, align 8, !tbaa !29
  %34 = load i32, ptr %6, align 4, !tbaa !25
  %35 = getelementptr inbounds [3 x double], ptr %12, i64 0, i64 0
  call void @addGateToQASM(ptr noundef byval(%struct.Qureg) align 8 %0, i32 noundef 10, ptr noundef null, i32 noundef 0, i32 noundef %34, ptr noundef %35, i32 noundef 3)
  call void @llvm.lifetime.end.p0(i64 24, ptr %12) #7
  call void @llvm.lifetime.end.p0(i64 8, ptr %11) #7
  call void @llvm.lifetime.end.p0(i64 8, ptr %10) #7
  call void @llvm.lifetime.end.p0(i64 8, ptr %9) #7
  call void @llvm.lifetime.end.p0(i64 16, ptr %8) #7
  call void @llvm.lifetime.end.p0(i64 16, ptr %7) #7
  br label %36

36:                                               ; preds = %19, %18
  ret void
}