; Function Attrs: nounwind uwtable
define void @qasm_recordAxisRotation(ptr noundef readonly byval(%struct.Qureg) align 8 captures(none) %0, double noundef %1, ptr noundef readonly byval(%struct.Vector) align 8 captures(none) %2, i32 noundef %3) local_unnamed_addr #0 {
  %5 = alloca %struct.Complex, align 8
  %6 = alloca %struct.Complex, align 8
  %7 = alloca double, align 8
  %8 = alloca double, align 8
  %9 = alloca double, align 8
  %10 = alloca [3 x double], align 16
  %11 = getelementptr inbounds nuw i8, ptr %0, i64 128
  %12 = load ptr, ptr %11, align 8, !tbaa !4
  %13 = getelementptr inbounds nuw i8, ptr %12, i64 16
  %14 = load i32, ptr %13, align 8, !tbaa !14
  %.not = icmp eq i32 %14, 0
  br i1 %.not, label %27, label %15

15:                                               ; preds = %4
  call void @llvm.lifetime.start.p0(i64 16, ptr nonnull %5) #16
  call void @llvm.lifetime.start.p0(i64 16, ptr nonnull %6) #16
  call void @getComplexPairFromRotation(double noundef %1, ptr noundef nonnull byval(%struct.Vector) align 8 %2, ptr noundef nonnull %5, ptr noundef nonnull %6) #16
  call void @llvm.lifetime.start.p0(i64 8, ptr nonnull %7) #16
  call void @llvm.lifetime.start.p0(i64 8, ptr nonnull %8) #16
  call void @llvm.lifetime.start.p0(i64 8, ptr nonnull %9) #16
  %16 = load double, ptr %5, align 8
  %17 = getelementptr inbounds nuw i8, ptr %5, i64 8
  %18 = load double, ptr %17, align 8
  %19 = load double, ptr %6, align 8
  %20 = getelementptr inbounds nuw i8, ptr %6, i64 8
  %21 = load double, ptr %20, align 8
  call void @getZYZRotAnglesFromComplexPair(double %16, double %18, double %19, double %21, ptr noundef nonnull %7, ptr noundef nonnull %8, ptr noundef nonnull %9) #16
  call void @llvm.lifetime.start.p0(i64 24, ptr nonnull %10) #16
  %22 = load double, ptr %7, align 8, !tbaa !22
  store double %22, ptr %10, align 16, !tbaa !22
  %23 = getelementptr inbounds nuw i8, ptr %10, i64 8
  %24 = load double, ptr %8, align 8, !tbaa !22
  store double %24, ptr %23, align 8, !tbaa !22
  %25 = getelementptr inbounds nuw i8, ptr %10, i64 16
  %26 = load double, ptr %9, align 8, !tbaa !22
  store double %26, ptr %25, align 16, !tbaa !22
  call void @addGateToQASM(ptr noundef nonnull byval(%struct.Qureg) align 8 %0, i32 noundef 10, ptr noundef null, i32 noundef 0, i32 noundef %3, ptr noundef nonnull %10, i32 noundef 3)
  call void @llvm.lifetime.end.p0(i64 24, ptr nonnull %10) #16
  call void @llvm.lifetime.end.p0(i64 8, ptr nonnull %9) #16
  call void @llvm.lifetime.end.p0(i64 8, ptr nonnull %8) #16
  call void @llvm.lifetime.end.p0(i64 8, ptr nonnull %7) #16
  call void @llvm.lifetime.end.p0(i64 16, ptr nonnull %6) #16
  call void @llvm.lifetime.end.p0(i64 16, ptr nonnull %5) #16
  br label %27

27:                                               ; preds = %4, %15
  ret void
}